target datalayout = "e-m:e-p270:32:32-p271:32:32-p272:64:64-i64:64-i128:128-f80:128-n8:16:32:64-S128"
target triple = "x86_64-pc-linux-gnu"

%"class.cv::Mat_" = type { %"class.cv::Mat" }
%"class.cv::Mat" = type { i32, i32, i32, i32, ptr, ptr, ptr, ptr, ptr, ptr, %"struct.cv::MatSize", %"struct.cv::MatStep" }
%"struct.cv::MatSize" = type { ptr }
%"struct.cv::MatStep" = type { ptr, [2 x i64] }
%"class.cv::TrackingFunctionPF::TrackingHistogram" = type { %"class.cv::Mat_", %"class.cv::Mat_" }

; Function Attrs: inlinehint mustprogress nounwind uwtable
define linkonce_odr hidden noundef nonnull align 8 dereferenceable(8) ptr @_ZNK2cv4Mat_IdEclEii(ptr noundef nonnull align 8 dereferenceable(96) %0, i32 noundef %1, i32 noundef %2) #6 comdat align 2 {
  %4 = alloca ptr, align 8
  %5 = alloca i32, align 4
  %6 = alloca i32, align 4
  store ptr %0, ptr %4, align 8, !tbaa !39
  store i32 %1, ptr %5, align 4, !tbaa !58
  store i32 %2, ptr %6, align 4, !tbaa !58
  %7 = load ptr, ptr %4, align 8
  %8 = getelementptr inbounds nuw %"class.cv::Mat", ptr %7, i32 0, i32 4
  %9 = load ptr, ptr %8, align 8, !tbaa !61
  %10 = getelementptr inbounds nuw %"class.cv::Mat", ptr %7, i32 0, i32 11
  %11 = getelementptr inbounds nuw %"struct.cv::MatStep", ptr %10, i32 0, i32 0
  %12 = load ptr, ptr %11, align 8, !tbaa !76
  %13 = getelementptr inbounds i64, ptr %12, i64 0
  %14 = load i64, ptr %13, align 8, !tbaa !36
  %15 = load i32, ptr %5, align 4, !tbaa !58
  %16 = sext i32 %15 to i64
  %17 = mul i64 %14, %16
  %18 = getelementptr inbounds nuw i8, ptr %9, i64 %17
  %19 = load i32, ptr %6, align 4, !tbaa !58
  %20 = sext i32 %19 to i64
  %21 = getelementptr inbounds double, ptr %18, i64 %20
  ret ptr %21
}

; Function Attrs: mustprogress uwtable
define hidden noundef double @_ZNK2cv18TrackingFunctionPF17TrackingHistogram4distERKS1_(ptr noundef nonnull align 8 dereferenceable(192) %0, ptr noundef nonnull align 8 dereferenceable(192) %1) #4 align 2 {
  %3 = alloca ptr, align 8
  %4 = alloca ptr, align 8
  %5 = alloca double, align 8
  %6 = alloca i32, align 4
  %7 = alloca i32, align 4
  %8 = alloca i32, align 4
  %9 = alloca i32, align 4
  store ptr %0, ptr %3, align 8, !tbaa !106
  store ptr %1, ptr %4, align 8, !tbaa !106
  %10 = load ptr, ptr %3, align 8
  call void @llvm.lifetime.start.p0(i64 8, ptr %5) #3
  store double 1.000000e+00, ptr %5, align 8, !tbaa !57
  call void @llvm.lifetime.start.p0(i64 4, ptr %6) #3
  store i32 0, ptr %6, align 4, !tbaa !58
  br label %11

11:                                               ; preds = %46, %2
  %12 = load i32, ptr %6, align 4, !tbaa !58
  %13 = getelementptr inbounds nuw %"class.cv::TrackingFunctionPF::TrackingHistogram", ptr %10, i32 0, i32 0
  %14 = getelementptr inbounds nuw %"class.cv::Mat", ptr %13, i32 0, i32 2
  %15 = load i32, ptr %14, align 8, !tbaa !56
  %16 = icmp slt i32 %12, %15
  br i1 %16, label %18, label %17

17:                                               ; preds = %11
  store i32 2, ptr %7, align 4
  call void @llvm.lifetime.end.p0(i64 4, ptr %6) #3
  br label %49

18:                                               ; preds = %11
  call void @llvm.lifetime.start.p0(i64 4, ptr %8) #3
  store i32 0, ptr %8, align 4, !tbaa !58
  br label %19

19:                                               ; preds = %42, %18
  %20 = load i32, ptr %8, align 4, !tbaa !58
  %21 = getelementptr inbounds nuw %"class.cv::TrackingFunctionPF::TrackingHistogram", ptr %10, i32 0, i32 0
  %22 = getelementptr inbounds nuw %"class.cv::Mat", ptr %21, i32 0, i32 3
  %23 = load i32, ptr %22, align 4, !tbaa !79
  %24 = icmp slt i32 %20, %23
  br i1 %24, label %26, label %25

25:                                               ; preds = %19
  store i32 5, ptr %7, align 4
  call void @llvm.lifetime.end.p0(i64 4, ptr %8) #3
  br label %45

26:                                               ; preds = %19
  %27 = getelementptr inbounds nuw %"class.cv::TrackingFunctionPF::TrackingHistogram", ptr %10, i32 0, i32 0
  %28 = load i32, ptr %6, align 4, !tbaa !58
  %29 = load i32, ptr %8, align 4, !tbaa !58
  %30 = call noundef nonnull align 8 dereferenceable(8) ptr @_ZNK2cv4Mat_IdEclEii(ptr noundef nonnull align 8 dereferenceable(96) %27, i32 noundef %28, i32 noundef %29)
  %31 = load double, ptr %30, align 8, !tbaa !57
  %32 = load ptr, ptr %4, align 8, !tbaa !106
  %33 = getelementptr inbounds nuw %"class.cv::TrackingFunctionPF::TrackingHistogram", ptr %32, i32 0, i32 0
  %34 = load i32, ptr %6, align 4, !tbaa !58
  %35 = load i32, ptr %8, align 4, !tbaa !58
  %36 = call noundef nonnull align 8 dereferenceable(8) ptr @_ZNK2cv4Mat_IdEclEii(ptr noundef nonnull align 8 dereferenceable(96) %33, i32 noundef %34, i32 noundef %35)
  %37 = load double, ptr %36, align 8, !tbaa !57
  %38 = fmul double %31, %37
  %39 = call double @sqrt(double noundef %38) #3, !tbaa !58
  %40 = load double, ptr %5, align 8, !tbaa !57
  %41 = fsub double %40, %39
  store double %41, ptr %5, align 8, !tbaa !57
  br label %42

42:                                               ; preds = %26
  %43 = load i32, ptr %8, align 4, !tbaa !58
  %44 = add nsw i32 %43, 1
  store i32 %44, ptr %8, align 4, !tbaa !58
  br label %19, !llvm.loop !116

45:                                               ; preds = %25
  br label %46

46:                                               ; preds = %45
  %47 = load i32, ptr %6, align 4, !tbaa !58
  %48 = add nsw i32 %47, 1
  store i32 %48, ptr %6, align 4, !tbaa !58
  br label %11, !llvm.loop !117

49:                                               ; preds = %17
  call void @llvm.lifetime.start.p0(i64 4, ptr %9) #3
  store i32 0, ptr %9, align 4, !tbaa !58
  br label %50

50:                                               ; preds = %71, %49
  %51 = load i32, ptr %9, align 4, !tbaa !58
  %52 = getelementptr inbounds nuw %"class.cv::TrackingFunctionPF::TrackingHistogram", ptr %10, i32 0, i32 1
  %53 = getelementptr inbounds nuw %"class.cv::Mat", ptr %52, i32 0, i32 3
  %54 = load i32, ptr %53, align 4, !tbaa !79
  %55 = icmp slt i32 %51, %54
  br i1 %55, label %57, label %56

56:                                               ; preds = %50
  store i32 8, ptr %7, align 4
  call void @llvm.lifetime.end.p0(i64 4, ptr %9) #3
  br label %74

57:                                               ; preds = %50
  %58 = getelementptr inbounds nuw %"class.cv::TrackingFunctionPF::TrackingHistogram", ptr %10, i32 0, i32 1
  %59 = load i32, ptr %9, align 4, !tbaa !58
  %60 = call noundef nonnull align 8 dereferenceable(8) ptr @_ZNK2cv4Mat_IdEclEii(ptr noundef nonnull align 8 dereferenceable(96) %58, i32 noundef 0, i32 noundef %59)
  %61 = load double, ptr %60, align 8, !tbaa !57
  %62 = load ptr, ptr %4, align 8, !tbaa !106
  %63 = getelementptr inbounds nuw %"class.cv::TrackingFunctionPF::TrackingHistogram", ptr %62, i32 0, i32 1
  %64 = load i32, ptr %9, align 4, !tbaa !58
  %65 = call noundef nonnull align 8 dereferenceable(8) ptr @_ZNK2cv4Mat_IdEclEii(ptr noundef nonnull align 8 dereferenceable(96) %63, i32 noundef 0, i32 noundef %64)
  %66 = load double, ptr %65, align 8, !tbaa !57
  %67 = fmul double %61, %66
  %68 = call double @sqrt(double noundef %67) #3, !tbaa !58
  %69 = load double, ptr %5, align 8, !tbaa !57
  %70 = fsub double %69, %68
  store double %70, ptr %5, align 8, !tbaa !57
  br label %71

71:                                               ; preds = %57
  %72 = load i32, ptr %9, align 4, !tbaa !58
  %73 = add nsw i32 %72, 1
  store i32 %73, ptr %9, align 4, !tbaa !58
  br label %50, !llvm.loop !118

74:                                               ; preds = %56
  %75 = load double, ptr %5, align 8, !tbaa !57
  %76 = call double @sqrt(double noundef %75) #3, !tbaa !58
  store i32 1, ptr %7, align 4
  call void @llvm.lifetime.end.p0(i64 8, ptr %5) #3
  ret double %76
}