; Function Attrs: mustprogress nofree nounwind memory(readwrite, inaccessiblemem: write) uwtable
define hidden noundef double @_ZNK2cv18TrackingFunctionPF17TrackingHistogram4distERKS1_(ptr noundef nonnull readonly align 8 captures(none) dereferenceable(192) %0, ptr noundef nonnull readonly align 8 captures(none) dereferenceable(192) %1) local_unnamed_addr #16 align 2 {
  %3 = getelementptr inbounds nuw i8, ptr %0, i64 8
  %4 = load i32, ptr %3, align 8, !tbaa !44
  %5 = icmp sgt i32 %4, 0
  br i1 %5, label %.preheader20.lr.ph, label %.preheader

.preheader20.lr.ph:                               ; preds = %2
  %6 = getelementptr inbounds nuw i8, ptr %0, i64 12
  %7 = getelementptr inbounds nuw i8, ptr %0, i64 16
  %8 = load ptr, ptr %7, align 8
  %9 = getelementptr inbounds nuw i8, ptr %0, i64 72
  %10 = load ptr, ptr %9, align 8
  %11 = getelementptr inbounds nuw i8, ptr %1, i64 16
  %12 = load ptr, ptr %11, align 8
  %13 = getelementptr inbounds nuw i8, ptr %1, i64 72
  %14 = load ptr, ptr %13, align 8
  %15 = load i32, ptr %6, align 4, !tbaa !67
  %16 = icmp sgt i32 %15, 0
  br i1 %16, label %.preheader20, label %.preheader

.preheader20:                                     ; preds = %.preheader20.lr.ph, %._crit_edge
  %17 = phi i32 [ %33, %._crit_edge ], [ %4, %.preheader20.lr.ph ]
  %18 = phi i32 [ %34, %._crit_edge ], [ %15, %.preheader20.lr.ph ]
  %indvars.iv34 = phi i64 [ %indvars.iv.next35, %._crit_edge ], [ 0, %.preheader20.lr.ph ]
  %.01923 = phi double [ %.1.lcssa, %._crit_edge ], [ 1.000000e+00, %.preheader20.lr.ph ]
  %19 = icmp sgt i32 %18, 0
  br i1 %19, label %.lr.ph, label %._crit_edge

.lr.ph:                                           ; preds = %.preheader20
  %20 = load i64, ptr %10, align 8, !tbaa !36
  %21 = mul i64 %20, %indvars.iv34
  %22 = getelementptr inbounds nuw i8, ptr %8, i64 %21
  %23 = load i64, ptr %14, align 8, !tbaa !36
  %24 = mul i64 %23, %indvars.iv34
  %25 = getelementptr inbounds nuw i8, ptr %12, i64 %24
  br label %37

.preheader:                                       ; preds = %._crit_edge, %.preheader20.lr.ph, %2
  %.019.lcssa = phi double [ 1.000000e+00, %2 ], [ 1.000000e+00, %.preheader20.lr.ph ], [ %.1.lcssa, %._crit_edge ]
  %26 = getelementptr inbounds nuw i8, ptr %0, i64 108
  %27 = load i32, ptr %26, align 4, !tbaa !67
  %28 = icmp sgt i32 %27, 0
  br i1 %28, label %.lr.ph28, label %._crit_edge29

.lr.ph28:                                         ; preds = %.preheader
  %29 = getelementptr inbounds nuw i8, ptr %0, i64 112
  %30 = load ptr, ptr %29, align 8, !tbaa !50
  %31 = getelementptr inbounds nuw i8, ptr %1, i64 112
  %32 = load ptr, ptr %31, align 8, !tbaa !50
  br label %49

._crit_edge.loopexit:                             ; preds = %37
  %.pre = load i32, ptr %3, align 8, !tbaa !44
  br label %._crit_edge

._crit_edge:                                      ; preds = %._crit_edge.loopexit, %.preheader20
  %33 = phi i32 [ %17, %.preheader20 ], [ %.pre, %._crit_edge.loopexit ]
  %34 = phi i32 [ %18, %.preheader20 ], [ %45, %._crit_edge.loopexit ]
  %.1.lcssa = phi double [ %.01923, %.preheader20 ], [ %44, %._crit_edge.loopexit ]
  %indvars.iv.next35 = add nuw nsw i64 %indvars.iv34, 1
  %35 = sext i32 %33 to i64
  %36 = icmp slt i64 %indvars.iv.next35, %35
  br i1 %36, label %.preheader20, label %.preheader, !llvm.loop !130

37:                                               ; preds = %.lr.ph, %37
  %indvars.iv = phi i64 [ 0, %.lr.ph ], [ %indvars.iv.next, %37 ]
  %.121 = phi double [ %.01923, %.lr.ph ], [ %44, %37 ]
  %38 = getelementptr inbounds nuw double, ptr %22, i64 %indvars.iv
  %39 = load double, ptr %38, align 8, !tbaa !45
  %40 = getelementptr inbounds nuw double, ptr %25, i64 %indvars.iv
  %41 = load double, ptr %40, align 8, !tbaa !45
  %42 = fmul double %39, %41
  %43 = tail call double @sqrt(double noundef %42) #30, !tbaa !42
  %44 = fsub double %.121, %43
  %indvars.iv.next = add nuw nsw i64 %indvars.iv, 1
  %45 = load i32, ptr %6, align 4, !tbaa !67
  %46 = sext i32 %45 to i64
  %47 = icmp slt i64 %indvars.iv.next, %46
  br i1 %47, label %37, label %._crit_edge.loopexit, !llvm.loop !131

._crit_edge29:                                    ; preds = %49, %.preheader
  %.2.lcssa = phi double [ %.019.lcssa, %.preheader ], [ %56, %49 ]
  %48 = tail call double @sqrt(double noundef %.2.lcssa) #30, !tbaa !42
  ret double %48

49:                                               ; preds = %.lr.ph28, %49
  %indvars.iv37 = phi i64 [ 0, %.lr.ph28 ], [ %indvars.iv.next38, %49 ]
  %.226 = phi double [ %.019.lcssa, %.lr.ph28 ], [ %56, %49 ]
  %50 = getelementptr inbounds nuw double, ptr %30, i64 %indvars.iv37
  %51 = load double, ptr %50, align 8, !tbaa !45
  %52 = getelementptr inbounds nuw double, ptr %32, i64 %indvars.iv37
  %53 = load double, ptr %52, align 8, !tbaa !45
  %54 = fmul double %51, %53
  %55 = tail call double @sqrt(double noundef %54) #30, !tbaa !42
  %56 = fsub double %.226, %55
  %indvars.iv.next38 = add nuw nsw i64 %indvars.iv37, 1
  %57 = load i32, ptr %26, align 4, !tbaa !67
  %58 = sext i32 %57 to i64
  %59 = icmp slt i64 %indvars.iv.next38, %58
  br i1 %59, label %49, label %._crit_edge29, !llvm.loop !132
}